; Function Attrs: nounwind uwtable
define void @zend_list_close(ptr nocapture noundef %0) local_unnamed_addr #0 {
  %2 = alloca %struct._zend_resource, align 8
  %3 = load i32, ptr %0, align 4
  %4 = icmp eq i32 %3, 0
  br i1 %4, label %5, label %9

5:                                                ; preds = %1
  %6 = getelementptr inbounds i8, ptr %0, i64 8
  %7 = load i64, ptr %6, align 8
  %8 = tail call i32 @zend_hash_index_del(ptr noundef nonnull getelementptr inbounds (%struct._zend_executor_globals, ptr @executor_globals, i64 0, i32 33), i64 noundef %7) #14
  br label %22

9:                                                ; preds = %1
  %10 = getelementptr inbounds i8, ptr %0, i64 16
  %11 = load i32, ptr %10, align 8
  %12 = icmp sgt i32 %11, -1
  br i1 %12, label %13, label %22

13:                                               ; preds = %9
  call void @llvm.lifetime.start.p0(i64 32, ptr nonnull %2)
  call void @llvm.memcpy.p0.p0.i64(ptr noundef nonnull align 8 dereferenceable(32) %2, ptr noundef nonnull align 8 dereferenceable(32) %0, i64 32, i1 false)
  store i32 -1, ptr %10, align 8
  %14 = getelementptr inbounds i8, ptr %0, i64 24
  store ptr null, ptr %14, align 8
  %15 = getelementptr inbounds i8, ptr %2, i64 16
  %16 = load i32, ptr %15, align 8
  %17 = sext i32 %16 to i64
  %18 = tail call ptr @zend_hash_index_find(ptr noundef nonnull @list_destructors, i64 noundef %17) #14
  %.not.i = icmp ne ptr %18, null
  tail call void @llvm.assume(i1 %.not.i)
  %19 = load ptr, ptr %18, align 8, !nonnull !4, !noundef !4
  %20 = load ptr, ptr %19, align 8
  %.not13.i = icmp eq ptr %20, null
  br i1 %.not13.i, label %zend_resource_dtor.exit, label %21

21:                                               ; preds = %13
  call void %20(ptr noundef nonnull %2) #14
  br label %zend_resource_dtor.exit

zend_resource_dtor.exit:                          ; preds = %13, %21
  call void @llvm.lifetime.end.p0(i64 32, ptr nonnull %2)
  br label %22

22:                                               ; preds = %9, %zend_resource_dtor.exit, %5
  ret void
}